(dp0
S'Agriculture and vegetation'
p1
(lp2
sS'The body'
p3
(lp4
S'pregnant'
p5
aS'strong'
p6
aS'weak'
p7
aS'healthy'
p8
aS'sick/ill'
p9
aS'tired'
p10
aS'lazy'
p11
aS'bald'
p12
aS'lame'
p13
aS'deaf'
p14
aS'mute'
p15
aS'blind'
p16
aS'drunk'
p17
aS'naked'
p18
aS'dead'
p19
aS'barefoot'
p20
aS'swollen'
p21
asS'The physical world'
p22
(lp23
S'calm'
p24
aS'rough(2)'
p25
asS'Kinship'
p26
(lp27
S'male(1)'
p28
aS'female(1)'
p29
aS'step-'
p30
asS'Possession'
p31
(lp32
S'rich'
p33
aS'poor'
p34
aS'stingy'
p35
aS'expensive'
p36
aS'cheap'
p37
asS'Basic actions and technology'
p38
(lp39
S'broken'
p40
asS'Food and drink'
p41
(lp42
S'cooked'
p43
aS'raw'
p44
aS'ripe'
p45
aS'unripe'
p46
aS'rotten'
p47
aS'sated'
p48
asS'Speech and language'
p49
(lp50
sS'Miscellaneous function words'
p51
(lp52
sS'Law'
p53
(lp54
S'guilty'
p55
aS'innocent'
p56
asS'Animals'
p57
(lp58
S'male(2)'
p59
aS'female(2)'
p60
asS'Sense perception'
p61
(lp62
S'wrinkled'
p63
aS'fragrant'
p64
aS'stinking'
p65
aS'sweet'
p66
aS'salty'
p67
aS'bitter'
p68
aS'sour'
p69
aS'brackish'
p70
aS'loud'
p71
aS'quiet'
p72
aS'bright'
p73
aS'light(2)'
p74
aS'dark'
p75
aS'white'
p76
aS'black'
p77
aS'red'
p78
aS'blue'
p79
aS'green'
p80
aS'yellow'
p81
aS'hard'
p82
aS'soft'
p83
aS'rough(1)'
p84
aS'smooth'
p85
aS'sharp'
p86
aS'blunt'
p87
aS'heavy'
p88
aS'light(1)'
p89
aS'wet'
p90
aS'dry'
p91
aS'hot'
p92
aS'warm'
p93
aS'cold'
p94
aS'clean'
p95
aS'dirty'
p96
aS'brown'
p97
aS'grey'
p98
aS'orange'
p99
aS'pink'
p100
aS'violet'
p101
asS'Cognition'
p102
(lp103
S'wise'
p104
aS'stupid'
p105
aS'mad'
p106
aS'clear'
p107
aS'obscure'
p108
aS'secret'
p109
aS'certain'
p110
aS'easy'
p111
aS'difficult'
p112
asS'Clothing and grooming'
p113
(lp114
sS'Modern world'
p115
(lp116
sS'Motion'
p117
(lp118
sS'The house'
p119
(lp120
sS'Time'
p121
(lp122
S'new'
p123
aS'young'
p124
aS'old'
p125
aS'ready'
p126
asS'Religion and belief'
p127
(lp128
S'holy'
p129
asS'Quantity'
p130
(lp131
S'full'
p132
aS'empty'
p133
aS'alone'
p134
asS'Spatial relations'
p135
(lp136
S'high'
p137
aS'low'
p138
aS'pointed'
p139
aS'right(1)'
p140
aS'left'
p141
aS'big'
p142
aS'small'
p143
aS'long'
p144
aS'tall'
p145
aS'short'
p146
aS'wide'
p147
aS'narrow'
p148
aS'thick'
p149
aS'thin'
p150
aS'deep'
p151
aS'shallow'
p152
aS'flat'
p153
aS'straight'
p154
aS'crooked'
p155
aS'round'
p156
aS'similar'
p157
asS'Emotions and values'
p158
(lp159
S'surprised or astonished'
p160
aS'happy'
p161
aS'proud'
p162
aS'brave'
p163
aS'faithful'
p164
aS'True'
p165
aS'good'
p166
aS'bad'
p167
aS'right(2)'
p168
aS'wrong'
p169
aS'beautiful'
p170
aS'ugly'
p171
aS'greedy'
p172
aS'clever'
p173
aS'better'
p174
aS'voluptuous'
p175
aS'wild'
p176
aS'worse'
p177
asS'Social and political relations'
p178
(lp179
S'free'
p180
asS'Warfare and hunting'
p181
(lp182
s.