(dp0
S'Agriculture and vegetation'
p1
(lp2
I43
aI11
aI39
aI32
aI24
aI0
aI15
aI12
aI10
aI5
aI36
aI0
aI39
aI29
aI40
aI32
aI27
aI33
aI35
aI27
aI21
aI26
aI21
aI31
aI26
aI38
aI52
aI35
aI18
aI20
aI32
aI25
aI2
aI30
aI31
aI30
aI17
aI14
aI9
aI2
aI0
aI10
aI12
aI3
aI1
aI0
aI5
aI26
aI24
aI14
aI11
aI24
aI18
aI1
aI4
aI6
aI6
aI1
aI24
aI20
aI22
aI4
aI24
aI11
aI0
aI25
aI8
aI2
aI21
aI14
aI22
asS'The body'
p3
(lp4
I31
aI25
aI33
aI41
aI36
aI36
aI41
aI30
aI23
aI16
aI38
aI34
aI36
aI40
aI35
aI39
aI40
aI33
aI40
aI24
aI22
aI37
aI33
aI3
aI12
aI32
aI36
aI2
aI25
aI9
aI25
aI35
aI24
aI17
aI47
aI30
aI45
aI48
aI43
aI48
aI46
aI33
aI44
aI5
aI41
aI41
aI47
aI31
aI43
aI29
aI0
aI33
aI16
aI6
aI33
aI4
aI2
aI1
aI5
aI15
aI30
aI38
aI34
aI30
aI46
aI36
aI49
aI37
aI17
aI37
aI16
aI25
aI29
aI28
aI37
aI36
aI30
aI8
aI25
aI3
aI1
aI23
aI19
aI14
aI33
aI31
aI23
aI44
aI3
aI28
aI32
aI10
aI20
aI18
aI19
aI29
aI13
aI30
aI42
asS'The physical world'
p5
(lp6
I20
aI38
aI28
aI22
aI27
aI34
aI34
aI34
aI30
aI34
aI30
aI32
aI43
aI23
aI31
aI42
aI4
aI43
aI27
aI28
aI19
aI19
aI26
aI19
aI39
aI38
aI2
aI33
aI18
aI2
aI35
aI25
aI38
aI37
aI41
aI44
aI51
aI31
aI30
aI32
aI43
aI16
aI46
aI35
aI27
aI24
aI23
aI42
aI30
aI35
aI52
aI38
aI23
aI48
aI46
aI38
aI36
aI18
aI21
aI14
aI10
aI15
aI22
aI45
aI21
aI37
aI0
aI15
aI38
aI33
asS'Kinship'
p7
(lp8
I32
aI20
aI37
aI27
aI31
aI29
aI48
aI44
aI45
aI20
aI45
aI54
aI43
aI30
aI43
aI31
aI46
aI13
aI29
aI37
aI21
aI20
aI29
aI31
aI28
aI28
aI30
aI38
aI43
aI0
aI25
aI35
aI29
aI51
aI32
aI39
aI11
aI29
aI3
asS'Possession'
p9
(lp10
I49
aI41
aI23
aI10
aI38
aI37
aI29
aI49
aI25
aI31
aI37
aI18
aI26
aI42
asS'Basic actions and technology'
p11
(lp12
I24
aI9
aI39
aI26
aI21
aI38
aI5
aI7
aI7
aI43
aI25
aI24
aI6
aI23
aI6
aI47
aI43
aI40
aI40
aI28
aI25
aI1
aI38
aI34
aI16
aI16
aI28
aI11
aI18
aI4
aI26
aI11
aI19
aI18
aI11
aI28
aI13
aI5
aI34
aI1
aI32
aI7
aI16
aI13
aI7
aI18
aI22
aI34
aI15
aI1
asS'Food and drink'
p13
(lp14
I39
aI32
aI27
aI28
aI23
aI24
aI29
aI14
aI14
aI24
aI11
aI23
aI19
aI7
aI41
aI48
aI40
aI53
aI43
aI44
aI18
aI24
aI25
aI5
aI40
aI16
aI39
aI45
aI16
aI27
aI39
aI15
aI18
aI12
aI13
aI9
aI20
aI8
aI12
aI28
aI24
aI30
aI36
aI32
aI27
aI45
aI1
aI37
aI40
aI25
aI18
aI18
aI12
aI36
aI32
aI31
aI8
aI35
aI19
asS'Speech and language'
p15
(lp16
I39
aI23
aI28
aI46
aI25
aI27
aI31
aI31
aI47
aI36
aI25
aI16
aI22
aI36
aI38
aI27
aI50
asS'Miscellaneous function words'
p17
(lp18
sS'Law'
p19
(lp20
I35
aI42
aI36
aI35
aI39
aI36
aI36
aI46
aI34
aI22
aI42
aI51
aI41
aI35
aI37
aI29
aI25
aI20
aI37
asS'Animals'
p21
(lp22
I3
aI36
aI32
aI0
aI3
aI57
aI21
aI32
aI41
aI14
aI55
aI4
aI2
aI27
aI19
aI26
aI32
aI33
aI2
aI45
aI7
aI1
aI19
aI26
aI28
aI17
aI27
aI19
aI19
aI25
aI31
aI2
aI22
aI22
aI1
aI12
aI14
aI11
aI9
aI20
aI36
aI17
aI27
aI7
aI42
aI4
aI14
aI0
aI22
aI8
aI16
aI21
aI40
aI39
aI3
aI46
aI9
aI33
aI10
aI30
aI5
aI2
aI4
aI16
aI16
aI8
aI25
aI1
aI20
aI24
aI14
aI2
aI5
aI16
aI6
aI6
aI5
aI9
aI7
aI9
aI11
aI3
aI4
aI22
aI5
aI42
aI1
aI1
aI1
aI3
aI1
aI0
aI4
aI26
asS'Sense perception'
p23
(lp24
I43
aI22
asS'Cognition'
p25
(lp26
I34
aI28
aI29
aI39
aI33
aI32
aI23
aI54
aI40
aI25
aI37
aI26
aI25
aI21
asS'Clothing and grooming'
p27
(lp28
I40
aI17
aI18
aI29
aI42
aI33
aI37
aI40
aI5
aI25
aI6
aI20
aI41
aI40
aI34
aI41
aI28
aI32
aI44
aI20
aI7
aI0
aI43
aI23
aI16
aI38
aI37
aI3
aI15
aI8
aI13
aI17
aI15
aI29
aI1
aI1
aI30
aI27
aI10
aI31
aI16
aI5
aI26
aI26
aI21
aI7
aI2
aI31
aI0
aI23
asS'Modern world'
p29
(lp30
I11
aI24
aI16
aI31
aI26
aI19
aI7
aI12
aI14
aI12
aI26
aI34
aI34
aI19
aI31
aI49
aI48
aI33
aI18
aI22
aI38
aI1
aI10
aI3
aI28
aI23
aI41
aI39
aI40
aI19
aI31
aI37
aI20
aI28
aI15
aI15
aI17
aI39
aI35
aI34
asS'Motion'
p31
(lp32
I23
aI36
aI41
aI32
aI29
aI21
aI29
aI41
aI43
aI19
aI7
aI11
aI4
aI13
aI8
aI41
aI25
aI21
asS'The house'
p33
(lp34
I31
aI39
aI35
aI33
aI29
aI47
aI44
aI26
aI13
aI14
aI42
aI36
aI25
aI43
aI31
aI21
aI40
aI35
aI30
aI40
aI30
aI39
aI35
aI12
aI10
aI31
aI6
aI1
aI23
aI13
aI34
aI13
aI1
aI47
aI5
aI22
aI13
aI2
aI37
aI28
asS'Time'
p35
(lp36
I38
aI41
aI54
aI40
aI52
aI38
aI56
aI46
aI54
aI20
aI63
aI34
aI24
aI44
aI47
aI49
aI41
aI41
asS'Religion and belief'
p37
(lp38
I39
aI47
aI36
aI40
aI37
aI35
aI41
aI10
aI13
aI14
aI30
aI0
aI28
aI26
aI17
aI17
aI42
aI29
aI22
aI41
aI34
aI34
aI18
aI7
asS'Quantity'
p39
(lp40
I35
aI22
aI46
aI24
aI30
aI29
asS'Spatial relations'
p41
(lp42
I36
aI31
aI27
aI25
aI26
aI25
aI20
aI30
aI29
aI34
aI36
aI12
aI19
aI31
aI22
aI32
aI40
aI21
aI27
aI31
asS'Emotions and values'
p43
(lp44
I38
aI43
aI53
aI19
aI41
aI23
aI38
aI41
aI41
aI42
aI44
aI26
aI23
aI35
aI26
aI40
aI27
aI16
aI29
asS'Social and political relations'
p45
(lp46
I39
aI29
aI43
aI9
aI24
aI17
aI0
aI23
aI37
aI32
aI41
aI20
aI23
aI31
aI0
aI38
aI36
aI27
aI14
aI23
aI6
aI31
aI23
aI14
aI0
aI35
aI32
aI1
aI2
aI5
aI28
aI15
aI39
aI29
aI11
aI18
aI19
aI53
aI11
asS'Warfare and hunting'
p47
(lp48
I32
aI48
aI39
aI39
aI20
aI24
aI6
aI28
aI7
aI28
aI34
aI34
aI2
aI19
aI15
aI12
aI33
aI30
aI29
aI22
aI10
aI49
aI7
aI5
aI8
aI9
aI11
aI0
aI26
as.