(dp0
S'Agriculture and vegetation'
p1
(lp2
sS'The body'
p3
(lp4
I15
aI30
aI30
aI23
aI39
aI33
aI17
aI20
aI15
aI30
aI15
aI24
aI32
aI19
aI40
aI2
aI17
asS'The physical world'
p5
(lp6
I27
aI18
asS'Kinship'
p7
(lp8
I18
aI20
aI34
asS'Possession'
p9
(lp10
I18
aI32
aI43
aI23
asS'Basic actions and technology'
p11
(lp12
I24
asS'Food and drink'
p13
(lp14
I38
aI24
aI38
aI3
aI2
aI0
asS'Speech and language'
p15
(lp16
sS'Miscellaneous function words'
p17
(lp18
sS'Law'
p19
(lp20
I55
aI18
asS'Animals'
p21
(lp22
I18
aI20
asS'Sense perception'
p23
(lp24
I16
aI9
aI0
aI22
aI35
aI16
aI14
aI45
aI39
aI33
aI46
aI31
aI25
aI23
aI30
aI33
aI24
aI42
aI25
aI24
aI18
aI20
aI30
aI1
aI26
aI46
aI35
aI26
aI29
aI40
aI36
aI29
aI18
aI20
aI31
aI22
aI34
aI33
asS'Cognition'
p25
(lp26
I32
aI20
aI19
aI25
aI17
aI31
aI29
aI41
aI46
asS'Clothing and grooming'
p27
(lp28
sS'Modern world'
p29
(lp30
sS'Motion'
p31
(lp32
sS'The house'
p33
(lp34
sS'Time'
p35
(lp36
I11
aI38
aI24
aI37
asS'Religion and belief'
p37
(lp38
I47
asS'Quantity'
p39
(lp40
I23
aI23
aI33
asS'Spatial relations'
p41
(lp42
I21
aI17
aI24
aI18
aI37
aI11
aI27
aI35
aI36
aI26
aI30
aI36
aI26
aI30
aI37
aI18
aI19
aI28
aI8
aI17
aI35
asS'Emotions and values'
p43
(lp44
I38
aI20
aI28
aI33
aI37
aI31
aI18
aI34
aI42
aI21
aI10
aI39
aI56
aI1
aI24
aI32
asS'Social and political relations'
p45
(lp46
I21
asS'Warfare and hunting'
p47
(lp48
s.