(dp0
S'Agriculture and vegetation'
p1
(lp2
I30
aI12
aI31
aI26
aI1
aI26
aI36
aI44
aI23
aI33
asS'The body'
p3
(lp4
I0
aI27
aI1
aI38
aI1
aI7
aI2
aI19
aI7
aI41
aI37
aI23
aI11
aI0
aI36
aI10
aI11
aI42
aI23
aI29
aI30
aI18
aI3
asS'The physical world'
p5
(lp6
I28
aI28
aI46
aI6
aI12
aI29
aI22
asS'Kinship'
p7
(lp8
I43
asS'Possession'
p9
(lp10
I49
aI35
aI43
aI24
aI36
aI45
aI35
aI45
aI38
aI23
aI44
aI43
aI48
aI31
aI33
aI36
aI45
aI49
aI13
aI39
aI44
aI44
aI28
aI27
aI35
asS'Basic actions and technology'
p11
(lp12
I53
aI19
aI11
aI27
aI5
aI31
aI24
aI15
aI12
aI36
aI18
aI23
aI25
aI13
aI21
aI28
aI7
aI17
aI14
aI33
aI13
aI39
aI20
aI4
aI29
aI9
aI15
aI11
aI4
aI26
aI34
aI29
aI22
aI29
aI28
aI0
aI35
aI34
asS'Food and drink'
p13
(lp14
I46
aI45
aI10
aI7
aI15
aI5
aI12
aI23
aI24
aI1
aI13
aI36
asS'Speech and language'
p15
(lp16
I39
aI39
aI37
aI29
aI28
aI29
aI52
aI48
aI54
aI39
aI25
aI47
aI54
aI37
aI49
aI38
aI0
aI22
aI22
aI38
aI30
aI8
aI46
aI44
aI16
aI22
aI10
aI44
asS'Miscellaneous function words'
p17
(lp18
I33
aI29
asS'Law'
p19
(lp20
I26
aI19
aI19
aI30
aI5
aI31
asS'Animals'
p21
(lp22
sS'Sense perception'
p23
(lp24
I32
aI2
aI32
aI30
aI44
aI34
aI32
aI44
aI34
aI37
aI24
aI12
aI44
asS'Cognition'
p25
(lp26
I49
aI49
aI47
aI55
aI56
aI35
aI14
aI48
aI49
aI21
aI48
aI45
aI38
aI50
aI27
aI14
aI48
aI54
asS'Clothing and grooming'
p27
(lp28
I4
aI15
aI8
aI5
aI35
asS'Modern world'
p29
(lp30
I13
asS'Motion'
p31
(lp32
I25
aI15
aI18
aI18
aI15
aI14
aI27
aI29
aI6
aI31
aI26
aI31
aI27
aI14
aI26
aI38
aI10
aI7
aI41
aI25
aI31
aI19
aI24
aI0
aI30
aI20
aI18
aI29
aI0
aI24
aI43
aI31
aI45
aI39
aI35
aI32
aI30
aI27
aI40
aI1
aI31
aI32
aI27
aI43
aI28
aI9
aI31
aI24
aI12
aI38
aI41
aI15
aI34
aI44
asS'The house'
p33
(lp34
I33
aI1
asS'Time'
p35
(lp36
I27
aI45
aI39
aI22
aI20
asS'Religion and belief'
p37
(lp38
I42
aI47
aI44
aI36
aI24
aI16
asS'Quantity'
p39
(lp40
I17
aI32
asS'Spatial relations'
p41
(lp42
I29
aI40
aI29
aI34
aI35
aI39
aI22
aI30
aI27
aI30
aI13
aI19
aI44
aI28
aI45
asS'Emotions and values'
p43
(lp44
I35
aI26
aI41
aI42
aI35
aI21
aI37
aI29
aI33
aI42
aI43
aI16
aI42
aI32
aI42
aI24
aI40
asS'Social and political relations'
p45
(lp46
I44
aI33
aI42
aI43
aI29
aI7
aI33
aI23
aI26
aI28
asS'Warfare and hunting'
p47
(lp48
I39
aI42
aI33
aI33
aI14
aI22
aI17
aI11
aI22
aI42
aI33
as.