(lp0
S'The physical world'
p1
aS'Kinship'
p2
aS'Animals'
p3
aS'The body'
p4
aS'Food and drink'
p5
aS'Clothing and grooming'
p6
aS'The house'
p7
aS'Agriculture and vegetation'
p8
aS'Basic actions and technology'
p9
aS'Motion'
p10
aS'Possession'
p11
aS'Spatial relations'
p12
aS'Quantity'
p13
aS'Time'
p14
aS'Sense perception'
p15
aS'Emotions and values'
p16
aS'Cognition'
p17
aS'Speech and language'
p18
aS'Social and political relations'
p19
aS'Warfare and hunting'
p20
aS'Law'
p21
aS'Religion and belief'
p22
aS'Modern world'
p23
aS'Miscellaneous function words'
p24
a.