(dp0
S'Agriculture and vegetation'
p1
(lp2
S'the farmer'
p3
aS'the field'
p4
aS'the garden'
p5
aS'the fence'
p6
aS'the ditch'
p7
aS'the furrow'
p8
aS'the spade'
p9
aS'the shovel'
p10
aS'the hoe'
p11
aS'the fork(2)/pitchfork'
p12
aS'the rake'
p13
aS'the seed'
p14
aS'the sickle or scythe'
p15
aS'the threshing-floor'
p16
aS'the harvest'
p17
aS'the grain'
p18
aS'the wheat'
p19
aS'the barley'
p20
aS'the rye'
p21
aS'the oats'
p22
aS'the maize/corn'
p23
aS'the rice'
p24
aS'the grass'
p25
aS'the hay'
p26
aS'the plant'
p27
aS'the root'
p28
aS'the branch'
p29
aS'the leaf'
p30
aS'the flower'
p31
aS'the tree'
p32
aS'the oak'
p33
aS'the beech'
p34
aS'the birch'
p35
aS'the pine'
p36
aS'the fir'
p37
aS'the acorn'
p38
aS'the vine'
p39
aS'the tobacco'
p40
aS'the pipe'
p41
aS'the tree stump'
p42
aS'the tree trunk'
p43
aS'the forked branch'
p44
aS'the bark'
p45
aS'the sap'
p46
aS'the palm tree'
p47
aS'the coconut'
p48
aS'the citrus fruit'
p49
aS'the banana'
p50
aS'the banyan'
p51
aS'the sweet potato'
p52
aS'the yam'
p53
aS'the cassava/manioc'
p54
aS'the gourd'
p55
aS'the pumpkin or squash'
p56
aS'the bamboo'
p57
aS'the sugar cane'
p58
aS'the fish poison'
p59
aS'the nettle'
p60
aS'the mushroom'
p61
aS'the lasso'
p62
aS'the larch'
p63
aS'the needle(2)'
p64
aS'the cone'
p65
aS'the digging stick (=yamstick)'
p66
aS'the millet or sorghum'
p67
aS'the paddy'
p68
aS'the almond'
p69
aS'the amomum'
p70
aS'the anatto'
p71
aS'the Andean weed'
p72
aS'the apple'
p73
aS'the ash tree'
p74
aS'the black tree dye'
p75
aS'the broccoli'
p76
aS'the bromelia'
p77
aS'the carrot'
p78
aS'the cashew'
p79
aS'the Chinese rice flower'
p80
aS'the coniferous tree'
p81
aS'the cottontree'
p82
aS'the creeper'
p83
aS'the dung'
p84
aS'the guava'
p85
aS'the jarilla'
p86
aS'the jowar'
p87
aS'the kohlrabi'
p88
aS'the liana'
p89
aS'the lima beans'
p90
aS'the lupin'
p91
aS'the mamuelchoique'
p92
aS'the mango'
p93
aS'the mangrove'
p94
aS'the melon'
p95
aS'the millet'
p96
aS'the onion'
p97
aS'the orange'
p98
aS'the pea'
p99
aS'the pear'
p100
aS'the pineapple'
p101
aS'the plum'
p102
aS'the reed'
p103
aS'the rubber tree'
p104
aS'the sensitive mimosa'
p105
aS'the straw'
p106
aS'the sugar beet'
p107
aS'the tar'
p108
aS'the taro'
p109
aS'the tree dye'
p110
aS'the turnip'
p111
aS'the vetch'
p112
aS'the watermelon'
p113
aS'the whip'
p114
aS'the wild maize'
p115
aS'the willow'
p116
aS'the woody shrub'
p117
aS'the yerba mate'
p118
asS'The body'
p119
(lp120
S'the body'
p121
aS'the skin or hide'
p122
aS'the flesh'
p123
aS'the hair'
p124
aS'the beard'
p125
aS'the body hair'
p126
aS'the pubic hair'
p127
aS'the dandruff'
p128
aS'the blood'
p129
aS'the vein or artery'
p130
aS'the bone'
p131
aS'the rib'
p132
aS'the horn'
p133
aS'the tail'
p134
aS'the back'
p135
aS'the spine'
p136
aS'the head'
p137
aS'the temples'
p138
aS'the skull'
p139
aS'the brain'
p140
aS'the face'
p141
aS'the forehead'
p142
aS'the jaw'
p143
aS'the cheek'
p144
aS'the chin'
p145
aS'the eye'
p146
aS'the eyebrow'
p147
aS'the eyelid'
p148
aS'the eyelash'
p149
aS'the ear'
p150
aS'the earlobe'
p151
aS'the earwax'
p152
aS'the nose'
p153
aS'the nostril'
p154
aS'the nasal mucus'
p155
aS'the mouth'
p156
aS'the beak'
p157
aS'the lip'
p158
aS'the tongue'
p159
aS'the tooth'
p160
aS'the gums'
p161
aS'the molar tooth'
p162
aS'the neck'
p163
aS'the nape of the neck'
p164
aS'the throat'
p165
aS'the shoulder'
p166
aS'the shoulderblade'
p167
aS'the collarbone'
p168
aS'the arm'
p169
aS'the armpit'
p170
aS'the elbow'
p171
aS'the wrist'
p172
aS'the hand'
p173
aS'the palm of the hand'
p174
aS'the finger'
p175
aS'the thumb'
p176
aS'the fingernail'
p177
aS'the claw'
p178
aS'the leg'
p179
aS'the thigh'
p180
aS'the calf of the leg'
p181
aS'the knee'
p182
aS'the foot'
p183
aS'the ankle'
p184
aS'the heel'
p185
aS'the footprint'
p186
aS'the toe'
p187
aS'the wing'
p188
aS'the feather'
p189
aS'the chest'
p190
aS'the breast'
p191
aS'the nipple or teat'
p192
aS'the udder'
p193
aS'the navel'
p194
aS'the heart'
p195
aS'the lung'
p196
aS'the liver'
p197
aS'the kidney'
p198
aS'the spleen'
p199
aS'the stomach'
p200
aS'the intestines or guts'
p201
aS'the waist'
p202
aS'the hip'
p203
aS'the buttocks'
p204
aS'the womb'
p205
aS'the testicles'
p206
aS'the penis'
p207
aS'the corpse'
p208
aS'the grave'
p209
aS'the fever'
p210
aS'the goitre/goiter'
p211
aS'the cold'
p212
aS'the wound or sore'
p213
aS'the bruise'
p214
aS'the swelling'
p215
aS'the itch'
p216
aS'the blister'
p217
aS'the boil'
p218
aS'the pus'
p219
aS'the scar'
p220
aS'the physician'
p221
aS'the medicine'
p222
aS'the poison'
p223
aS'the vagina'
p224
aS'the sinew or tendon'
p225
aS'the vulva'
p226
aS'the life'
p227
aS'the carcass'
p228
aS'the disease'
p229
aS'the belly'
p230
aS'the canine tooth'
p231
aS'the cholesterol'
p232
aS'the dribble'
p233
aS'the fist'
p234
aS'the lap'
p235
aS'the metabolism'
p236
aS'the saliva'
p237
aS'the scabies'
p238
aS'the strength'
p239
aS'the umbilical cord'
p240
asS'The physical world'
p241
(lp242
S'the world'
p243
aS'the land'
p244
aS'the soil'
p245
aS'the dust'
p246
aS'the mud'
p247
aS'the sand'
p248
aS'the mountain or hill'
p249
aS'the cliff or precipice'
p250
aS'the plain'
p251
aS'the valley'
p252
aS'the island'
p253
aS'the mainland'
p254
aS'the shore'
p255
aS'the cave'
p256
aS'the water'
p257
aS'the sea'
p258
aS'the foam'
p259
aS'the ocean'
p260
aS'the lake'
p261
aS'the bay'
p262
aS'the lagoon'
p263
aS'the reef'
p264
aS'the cape'
p265
aS'the wave'
p266
aS'the tide'
p267
aS'the low tide'
p268
aS'the high tide'
p269
aS'the river or stream'
p270
aS'the whirlpool'
p271
aS'the spring or well'
p272
aS'the swamp'
p273
aS'the waterfall'
p274
aS'the woods or forest'
p275
aS'the wood'
p276
aS'the stone or rock'
p277
aS'the earthquake'
p278
aS'the sky'
p279
aS'the sun'
p280
aS'the moon'
p281
aS'the star'
p282
aS'the lightning'
p283
aS'the thunder'
p284
aS'the bolt of lightning'
p285
aS'the storm'
p286
aS'the rainbow'
p287
aS'the light'
p288
aS'the darkness'
p289
aS'the shade or shadow'
p290
aS'the dew'
p291
aS'the air'
p292
aS'the wind'
p293
aS'the cloud'
p294
aS'the fog'
p295
aS'the rain'
p296
aS'the snow'
p297
aS'the ice'
p298
aS'the weather'
p299
aS'the fire'
p300
aS'the flame'
p301
aS'the smoke'
p302
aS'the ash'
p303
aS'the embers'
p304
aS'the match'
p305
aS'the firewood'
p306
aS'the charcoal'
p307
aS'the beach'
p308
aS'the coal'
p309
aS'the constellation'
p310
aS'the arctic lights'
p311
aS'the savanna'
p312
aS'the steam'
p313
aS'the jade or jadeite'
p314
aS'the loam'
p315
aS'the river'
p316
aS'the river mouth'
p317
aS'the short dry season'
p318
aS'the spring'
p319
asS'Kinship'
p320
(lp321
S'the person'
p322
aS'the man'
p323
aS'the woman'
p324
aS'the boy'
p325
aS'the young man'
p326
aS'the girl'
p327
aS'the young woman'
p328
aS'the child(1)'
p329
aS'the baby'
p330
aS'the husband'
p331
aS'the wife'
p332
aS'the wedding'
p333
aS'the divorce'
p334
aS'the father'
p335
aS'the mother'
p336
aS'the parents'
p337
aS'the married man'
p338
aS'the married woman'
p339
aS'the son'
p340
aS'the daughter'
p341
aS'the child(2)'
p342
aS'the brother'
p343
aS'the older brother'
p344
aS'the younger brother'
p345
aS'the sister'
p346
aS'the older sister'
p347
aS'the younger sister'
p348
aS'the sibling'
p349
aS'the twins'
p350
aS'the grandfather'
p351
aS'the old man'
p352
aS'the grandmother'
p353
aS'the old woman'
p354
aS'the grandson'
p355
aS'the granddaughter'
p356
aS'the uncle'
p357
aS"the mother's brother"
p358
aS"the father's brother"
p359
aS'the aunt'
p360
aS"the mother's sister"
p361
aS"the father's sister"
p362
aS'the nephew'
p363
aS'the niece'
p364
aS'the cousin'
p365
aS'the ancestors'
p366
aS'the descendants'
p367
aS'the father-in-law (of a man)'
p368
aS'the father-in-law (of a woman)'
p369
aS'the mother-in-law (of a man)'
p370
aS'the mother-in-law (of a woman)'
p371
aS'the son-in-law (of a man)'
p372
aS'the son-in-law (of a woman)'
p373
aS'the daughter-in-law (of a man)'
p374
aS'the daughter-in-law (of a woman)'
p375
aS'the stepfather'
p376
aS'the stepmother'
p377
aS'the stepson'
p378
aS'the stepdaughter'
p379
aS'the orphan'
p380
aS'the widow'
p381
aS'the widower'
p382
aS'the relatives'
p383
aS'the family'
p384
aS'the older sibling'
p385
aS'the younger sibling'
p386
aS'the grandparents'
p387
aS'the grandchild'
p388
aS'the parents-in-law'
p389
aS'the child-in-law'
p390
aS'the sibling-in-law'
p391
aS'the co-father-in-law'
p392
aS'the co-mother-in-law'
p393
aS'the father-in-law'
p394
aS'the German'
p395
aS'the Hungarian'
p396
aS'the lover'
p397
aS'the mother-in-law'
p398
aS'the non-Gypsy'
p399
aS'the Slovak'
p400
aS'the spouse'
p401
aS'the stepchild'
p402
aS'the Vlax Gypsy'
p403
asS'Possession'
p404
(lp405
S'the thing'
p406
aS'the money'
p407
aS'the coin'
p408
aS'the beggar'
p409
aS'the debt'
p410
aS'the bill'
p411
aS'the tax'
p412
aS'the wages'
p413
aS'the merchant'
p414
aS'the market'
p415
aS'the shop/store'
p416
aS'the price'
p417
aS'the card'
p418
aS'the gift'
p419
aS'the property'
p420
aS'the string instrument'
p421
aS'to receive'
p422
asS'Basic actions and technology'
p423
(lp424
S'the work'
p425
aS'the chain'
p426
aS'the rope'
p427
aS'the knot'
p428
aS'the knife(2)'
p429
aS'the scissors or shears'
p430
aS'the axe/ax'
p431
aS'the adze'
p432
aS'the statue'
p433
aS'the broom'
p434
aS'the tool'
p435
aS'the carpenter'
p436
aS'the saw'
p437
aS'the hammer'
p438
aS'the nail'
p439
aS'the glue'
p440
aS'the blacksmith'
p441
aS'the anvil'
p442
aS'the gold'
p443
aS'the silver'
p444
aS'the copper'
p445
aS'the iron'
p446
aS'the lead'
p447
aS'the tin or tinplate'
p448
aS'the potter'
p449
aS'the clay'
p450
aS'the glass'
p451
aS'the basket'
p452
aS'the mat'
p453
aS'the rug'
p454
aS'the netbag'
p455
aS'the fan'
p456
aS'the sculptor'
p457
aS'the chisel'
p458
aS'the paint'
p459
aS'the whetstone'
p460
aS'the tumpline'
p461
aS'the boomerang'
p462
aS'the peg'
p463
aS'the barrel'
p464
aS'the basketry'
p465
aS'the bucket'
p466
aS'the cable'
p467
aS'the canvas sheet'
p468
aS'the corrugated iron'
p469
aS'the deck'
p470
aS'the drill'
p471
aS'the file'
p472
aS'the harbour'
p473
aS'the harpoon'
p474
aS'the hearthstones'
p475
aS'the manioc squeezer'
p476
aS'the pencil'
p477
aS'the rust'
p478
aS'the sack'
p479
aS'the scraper'
p480
aS'the skin bag'
p481
aS'the slap'
p482
aS'the spur'
p483
aS'the string or cord'
p484
aS'the trail'
p485
aS'the well'
p486
aS'the wharf'
p487
aS'the wheelbarrow'
p488
aS'to barbecue'
p489
asS'Food and drink'
p490
(lp491
S'the food'
p492
aS'the famine'
p493
aS'the oven'
p494
aS'the pot'
p495
aS'the kettle'
p496
aS'the pan'
p497
aS'the dish'
p498
aS'the plate'
p499
aS'the bowl'
p500
aS'the jug/pitcher'
p501
aS'the cup'
p502
aS'the saucer'
p503
aS'the spoon'
p504
aS'the knife(1)'
p505
aS'the fork'
p506
aS'the tongs'
p507
aS'the meal'
p508
aS'the breakfast'
p509
aS'the lunch'
p510
aS'the dinner'
p511
aS'the supper'
p512
aS'the bread'
p513
aS'the dough'
p514
aS'the flour'
p515
aS'the mill'
p516
aS'the mortar(1)'
p517
aS'the pestle'
p518
aS'the meat'
p519
aS'the sausage'
p520
aS'the soup'
p521
aS'the vegetables'
p522
aS'the bean'
p523
aS'the potato'
p524
aS'the fruit'
p525
aS'the bunch'
p526
aS'the fig'
p527
aS'the grape'
p528
aS'the nut'
p529
aS'the olive'
p530
aS'the oil'
p531
aS'the grease or fat'
p532
aS'the salt'
p533
aS'the pepper'
p534
aS'the chili pepper'
p535
aS'the honey'
p536
aS'the sugar'
p537
aS'the milk'
p538
aS'the cheese'
p539
aS'the butter'
p540
aS'the drink'
p541
aS'the mead'
p542
aS'the wine'
p543
aS'the beer'
p544
aS'the fermented drink'
p545
aS'the egg'
p546
aS'the yolk'
p547
aS'the manioc bread'
p548
aS'the fig tree'
p549
aS'the soy sauce'
p550
aS'the ayahuasca'
p551
aS'the bacon'
p552
aS'the biscuit'
p553
aS'the brandy'
p554
aS'the cabbage'
p555
aS'the cassava flour'
p556
aS'the cream'
p557
aS'the Japanese fish cake'
p558
aS'the jelly'
p559
aS'the manioc juice'
p560
aS'the mochi'
p561
aS'the rice ball or musubi'
p562
aS'the roasted cassava meal'
p563
aS'the smoked food'
p564
aS'the tamale'
p565
aS'the tofu or bean curd'
p566
aS'the tortilla'
p567
aS'the vinegar'
p568
asS'Speech and language'
p569
(lp570
S'the voice'
p571
aS'the speech'
p572
aS'the language'
p573
aS'the word'
p574
aS'the name'
p575
aS'the paper'
p576
aS'the pen'
p577
aS'the book'
p578
aS'the poet'
p579
aS'the flute'
p580
aS'the drum'
p581
aS'the horn or trumpet'
p582
aS'the rattle'
p583
aS'the fairy tale'
p584
aS'the hieroglyph or hieroglyphics'
p585
aS'the joke'
p586
aS'the poem'
p587
aS'the upper case or capital letter'
p588
aS'the violin'
p589
aS'the violin player'
p590
aS'to ululate'
p591
asS'Miscellaneous function words'
p592
(lp593
sS'Law'
p594
(lp595
S'the law'
p596
aS'the court'
p597
aS'the judgment'
p598
aS'the judge'
p599
aS'the plaintiff'
p600
aS'the defendant'
p601
aS'the witness'
p602
aS'the oath'
p603
aS'the penalty or punishment'
p604
aS'the fine'
p605
aS'the prison'
p606
aS'the murder'
p607
aS'the adultery'
p608
aS'the rape'
p609
aS'the arson'
p610
aS'the perjury'
p611
aS'the thief'
p612
aS'the lawyer'
p613
aS'the verdict'
p614
asS'Animals'
p615
(lp616
S'the porpoise or dolphin'
p617
aS'the animal'
p618
aS'the livestock'
p619
aS'the pasture'
p620
aS'the herdsman'
p621
aS'the stable or stall'
p622
aS'the cattle'
p623
aS'the bull'
p624
aS'the ox'
p625
aS'the cow'
p626
aS'the calf'
p627
aS'the sheep'
p628
aS'the ram'
p629
aS'the ewe'
p630
aS'the lamb'
p631
aS'the boar'
p632
aS'the sow'
p633
aS'the pig'
p634
aS'the goat'
p635
aS'the he-goat'
p636
aS'the kid'
p637
aS'the horse'
p638
aS'the stallion'
p639
aS'the mare'
p640
aS'the foal or colt'
p641
aS'the donkey'
p642
aS'the mule'
p643
aS'the fowl'
p644
aS'the cock/rooster'
p645
aS'the hen'
p646
aS'the chicken'
p647
aS'the goose'
p648
aS'the duck'
p649
aS'the nest'
p650
aS'the bird'
p651
aS'the seagull'
p652
aS'the heron'
p653
aS'the eagle'
p654
aS'the hawk'
p655
aS'the vulture'
p656
aS'the bat'
p657
aS'the parrot'
p658
aS'the crow'
p659
aS'the dove'
p660
aS'the owl'
p661
aS'the dog'
p662
aS'the rabbit'
p663
aS'the cat'
p664
aS'the opossum'
p665
aS'the mouse or rat'
p666
aS'the fish'
p667
aS'the fin'
p668
aS'the scale'
p669
aS'the gill'
p670
aS'the shell'
p671
aS'the shark'
p672
aS'the whale'
p673
aS'the stingray'
p674
aS'the freshwater eel'
p675
aS'the wolf'
p676
aS'the lion'
p677
aS'the bear'
p678
aS'the fox'
p679
aS'the deer'
p680
aS'the monkey'
p681
aS'the elephant'
p682
aS'the camel'
p683
aS'the insect'
p684
aS'the head louse'
p685
aS'the nit'
p686
aS'the flea'
p687
aS'the centipede'
p688
aS'the scorpion'
p689
aS'the cockroach'
p690
aS'the ant'
p691
aS'the spider'
p692
aS'the spider web'
p693
aS'the bee'
p694
aS'the beeswax'
p695
aS'the beehive'
p696
aS'the wasp'
p697
aS'the fly'
p698
aS'the sandfly or midge or gnat'
p699
aS'the mosquito'
p700
aS'the worm'
p701
aS'the snake'
p702
aS'the firefly'
p703
aS'the butterfly'
p704
aS'the grasshopper'
p705
aS'the snail'
p706
aS'the frog'
p707
aS'the lizard'
p708
aS'the crocodile or alligator'
p709
aS'the turtle'
p710
aS'the coyote'
p711
aS'the hare'
p712
aS'the quail'
p713
aS'the raccoon'
p714
aS'the squirrel'
p715
aS'the reindeer/caribou'
p716
aS'the elk/moose'
p717
aS'the beaver'
p718
aS'the body louse'
p719
aS'the tapir'
p720
aS'the cormorant'
p721
aS'the prawns or shrimp'
p722
aS'the termites'
p723
aS'the tick'
p724
aS'the kangaroo'
p725
aS'the anteater'
p726
aS'the toucan'
p727
aS'the jaguar'
p728
aS'the chameleon'
p729
aS'the buffalo'
p730
aS'the agouti'
p731
aS'the amphibian'
p732
aS'the Andean guinea pig'
p733
aS'the Andean owl'
p734
aS'the armadillo'
p735
aS'the bandicoot'
p736
aS'the barn owl'
p737
aS'the bustard'
p738
aS'the capibara'
p739
aS'the caterpillar'
p740
aS'the codfish'
p741
aS'the condor'
p742
aS'the herd'
p743
aS'the hocco'
p744
aS'the humming bird'
p745
aS'the ibis'
p746
aS'the iguana'
p747
aS'the jabiru'
p748
aS'the kingfisher'
p749
aS'the louse'
p750
aS'the Maine lobster'
p751
aS'the male pig'
p752
aS'the marail'
p753
aS'the mole'
p754
aS'the paca'
p755
aS'the sleepyhead bird'
p756
aS'the partridge'
p757
aS'the pet'
p758
aS'the piranha'
p759
aS'the plover'
p760
aS'the pouched marmot'
p761
aS'the prairie dog'
p762
aS'the roadrunner'
p763
aS'the skunk'
p764
aS'the songbird'
p765
aS'the sparrow'
p766
aS'the tiger'
p767
aS'the trumpeter bird'
p768
aS'the chipmunk'
p769
asS'Sense perception'
p770
(lp771
S'the sound or noise'
p772
aS'the colour/color'
p773
aS'the trace'
p774
asS'Cognition'
p775
(lp776
S'the mind'
p777
aS'the idea'
p778
aS'the pupil'
p779
aS'the teacher'
p780
aS'the school'
p781
aS'the intention'
p782
aS'the cause'
p783
aS'the doubt'
p784
aS'the need or necessity'
p785
aS'the manner'
p786
aS'the possibility'
p787
aS'the scarcity'
p788
aS'the state'
p789
aS'the study'
p790
asS'Clothing and grooming'
p791
(lp792
S'the clothing or clothes'
p793
aS'the tailor'
p794
aS'the cloth'
p795
aS'the wool'
p796
aS'the linen'
p797
aS'the cotton'
p798
aS'the silk'
p799
aS'the felt'
p800
aS'the fur'
p801
aS'the leather'
p802
aS'the spindle'
p803
aS'the loom'
p804
aS'the needle(1)'
p805
aS'the awl'
p806
aS'the thread'
p807
aS'the cloak'
p808
aS'the poncho'
p809
aS"the (woman's) dress"
p810
aS'the coat'
p811
aS'the shirt'
p812
aS'the collar'
p813
aS'the skirt'
p814
aS'the grass-skirt'
p815
aS'the trousers'
p816
aS'the sock or stocking'
p817
aS'the shoe'
p818
aS'the boot'
p819
aS'the shoemaker'
p820
aS'the hat or cap'
p821
aS'the belt'
p822
aS'the glove'
p823
aS'the veil'
p824
aS'the pocket'
p825
aS'the button'
p826
aS'the pin'
p827
aS'the ornament or adornment'
p828
aS'the jewel'
p829
aS'the ring'
p830
aS'the bracelet'
p831
aS'the necklace'
p832
aS'the bead'
p833
aS'the earring'
p834
aS'the headband or headdress'
p835
aS'the tattoo'
p836
aS'the handkerchief or rag'
p837
aS'the towel'
p838
aS'the comb'
p839
aS'the brush'
p840
aS'the plait/braid'
p841
aS'the razor'
p842
aS'the ointment'
p843
aS'the soap'
p844
aS'the mirror'
p845
aS'the snowshoe'
p846
aS'the bag'
p847
aS'the fringe'
p848
aS'the leg band'
p849
aS'the pompom'
p850
aS'the sandal'
p851
aS'the sleeve'
p852
aS'the smock'
p853
aS'the style or fashion'
p854
asS'Modern world'
p855
(lp856
S'the radio'
p857
aS'the television'
p858
aS'the telephone'
p859
aS'the motorcycle'
p860
aS'the car'
p861
aS'the bus'
p862
aS'the airplane'
p863
aS'the electricity'
p864
aS'the battery'
p865
aS'the hospital'
p866
aS'the nurse'
p867
aS'the pill or tablet'
p868
aS'the injection'
p869
aS'the tap/faucet'
p870
aS'the sink'
p871
aS'the toilet'
p872
aS'the mattress'
p873
aS'the government'
p874
aS'the president'
p875
aS'the minister'
p876
aS'the police'
p877
aS"the driver's license"
p878
aS'the crime'
p879
aS'the election'
p880
aS'the post/mail'
p881
aS'the postage stamp'
p882
aS'the letter'
p883
aS'the bank'
p884
aS'the tin/can'
p885
aS'the screw'
p886
aS'the screwdriver'
p887
aS'the bottle'
p888
aS'the candy/sweets'
p889
aS'the spectacles/glasses'
p890
aS'the plastic'
p891
aS'the bomb'
p892
aS'the workshop'
p893
aS'the cigarette'
p894
aS'the calendar'
p895
aS'the film/movie'
p896
aS'the music'
p897
aS'the song'
p898
aS'the newspaper'
p899
aS'the address'
p900
aS'the number'
p901
aS'the train'
p902
aS'the birth certificate'
p903
aS'the petroleum'
p904
aS'the motor'
p905
aS'the machine'
p906
aS'the bicycle'
p907
aS'the street'
p908
aS'the license plate'
p909
aS'the postcard'
p910
aS'the tea'
p911
aS'the coffee'
p912
aS'the license'
p913
asS'Motion'
p914
(lp915
S'the road'
p916
aS'the path'
p917
aS'the bridge'
p918
aS'the cart or wagon'
p919
aS'the wheel'
p920
aS'the axle'
p921
aS'the yoke'
p922
aS'the ship'
p923
aS'the boat'
p924
aS'the canoe'
p925
aS'the outrigger'
p926
aS'the raft'
p927
aS'the oar'
p928
aS'the paddle'
p929
aS'the rudder'
p930
aS'the mast'
p931
aS'the sail'
p932
aS'the anchor'
p933
aS'the port'
p934
aS'the sledge/sled'
p935
asS'The house'
p936
(lp937
S'the ladder'
p938
aS'the house'
p939
aS'the hut'
p940
aS'the garden-house'
p941
aS'the tent'
p942
aS'the yard or court'
p943
aS"the men's house"
p944
aS'the cookhouse'
p945
aS'the meeting house'
p946
aS'the room'
p947
aS'the door or gate'
p948
aS'the doorpost'
p949
aS'the lock'
p950
aS'the latch or door-bolt'
p951
aS'the key'
p952
aS'the window'
p953
aS'the floor'
p954
aS'the wall'
p955
aS'the fireplace'
p956
aS'the stove'
p957
aS'the chimney'
p958
aS'the bed'
p959
aS'the pillow'
p960
aS'the blanket'
p961
aS'the chair'
p962
aS'the table'
p963
aS'the lamp or torch'
p964
aS'the candle'
p965
aS'the shelf'
p966
aS'the trough'
p967
aS'the roof'
p968
aS'the thatch'
p969
aS'the ridgepole'
p970
aS'the rafter'
p971
aS'the beam'
p972
aS'the post or pole'
p973
aS'the board'
p974
aS'the arch'
p975
aS'the mason'
p976
aS'the brick'
p977
aS'the mortar(2)'
p978
aS'the adobe'
p979
aS'the camp'
p980
aS'the hammock'
p981
aS'the padlock'
p982
aS'the bench'
p983
aS'the case'
p984
aS'the griddle'
p985
aS'the guestroom'
p986
aS'the mosquito net'
p987
aS'the roof tile'
p988
asS'Time'
p989
(lp990
S'the time'
p991
aS'the age'
p992
aS'the end(2)'
p993
aS'the day(1)'
p994
aS'the night'
p995
aS'the dawn'
p996
aS'the morning'
p997
aS'the midday'
p998
aS'the afternoon'
p999
aS'the evening'
p1000
aS'the hour'
p1001
aS'the clock'
p1002
aS'the week'
p1003
aS'Sunday'
p1004
aS'Monday'
p1005
aS'Tuesday'
p1006
aS'Wednesday'
p1007
aS'Thursday'
p1008
aS'Friday'
p1009
aS'Saturday'
p1010
aS'the month'
p1011
aS'the year'
p1012
aS'the winter'
p1013
aS'the spring(2)'
p1014
aS'the summer'
p1015
aS'the autumn/fall'
p1016
aS'the season'
p1017
aS'the beginning'
p1018
aS'the day(2)'
p1019
aS'Chinese New Year'
p1020
aS'New Year'
p1021
aS'the period'
p1022
aS'the time(2)'
p1023
asS'Religion and belief'
p1024
(lp1025
S'the religion'
p1026
aS'the god'
p1027
aS'the temple'
p1028
aS'the altar'
p1029
aS'the sacrifice'
p1030
aS'the priest'
p1031
aS'the heaven'
p1032
aS'the hell'
p1033
aS'the demon'
p1034
aS'the idol'
p1035
aS'the magic'
p1036
aS'the sorcerer or witch'
p1037
aS'the fairy or elf'
p1038
aS'the ghost'
p1039
aS'the omen'
p1040
aS'the circumcision'
p1041
aS'the initiation ceremony'
p1042
aS'the church'
p1043
aS'the mosque'
p1044
aS'Christ'
p1045
aS'Christmas'
p1046
aS'Easter'
p1047
aS'the bishop'
p1048
aS'the funeral'
p1049
aS'the holiday'
p1050
aS'the hymn'
p1051
aS'the lent'
p1052
aS'the Muslim'
p1053
aS'the rosary'
p1054
aS'the shaman'
p1055
aS'the shamanistic song'
p1056
asS'Quantity'
p1057
(lp1058
S'the crowd'
p1059
aS'the part'
p1060
aS'the half'
p1061
aS'the pair'
p1062
aS'the piece'
p1063
aS'the centigram'
p1064
aS'the yard'
p1065
asS'Spatial relations'
p1066
(lp1067
S'the place'
p1068
aS'the remains'
p1069
aS'the top'
p1070
aS'the bottom'
p1071
aS'the end(1)'
p1072
aS'the edge'
p1073
aS'the side'
p1074
aS'the middle'
p1075
aS'the east'
p1076
aS'the west'
p1077
aS'the north'
p1078
aS'the south'
p1079
aS'the fathom'
p1080
aS'the hook'
p1081
aS'the corner'
p1082
aS'the cross'
p1083
aS'the square'
p1084
aS'the circle'
p1085
aS'the ball'
p1086
aS'the line'
p1087
aS'the hole'
p1088
asS'Emotions and values'
p1089
(lp1090
S'the soul or spirit'
p1091
aS'the good luck'
p1092
aS'the bad luck'
p1093
aS'the pain'
p1094
aS'the grief'
p1095
aS'the anxiety'
p1096
aS'the pity'
p1097
aS'the tear'
p1098
aS'the anger'
p1099
aS'the envy or jealousy'
p1100
aS'the shame'
p1101
aS'the fear'
p1102
aS'the danger'
p1103
aS'the deceit'
p1104
aS'the fault'
p1105
aS'the mistake'
p1106
aS'the blame'
p1107
aS'the praise'
p1108
aS'the evil'
p1109
aS'the mood'
p1110
aS'the trouble'
p1111
asS'Social and political relations'
p1112
(lp1113
S'the country'
p1114
aS'the native country'
p1115
aS'the town'
p1116
aS'the village'
p1117
aS'the boundary'
p1118
aS'the people'
p1119
aS'the clan'
p1120
aS'the chieftain'
p1121
aS'the walking stick'
p1122
aS'the king'
p1123
aS'the queen'
p1124
aS'the noble'
p1125
aS'the citizen'
p1126
aS'the master'
p1127
aS'the slave'
p1128
aS'the servant'
p1129
aS'the freeman'
p1130
aS'the friend'
p1131
aS'the enemy'
p1132
aS'the neighbour'
p1133
aS'the stranger'
p1134
aS'the guest'
p1135
aS'the host'
p1136
aS'the custom'
p1137
aS'the quarrel'
p1138
aS'the plot'
p1139
aS'the prostitute'
p1140
aS'Arabia'
p1141
aS'Australia'
p1142
aS'China'
p1143
aS'Egypt'
p1144
aS'Greece'
p1145
aS'India'
p1146
aS'Madagascar'
p1147
aS'Rarotonga'
p1148
aS'Spain'
p1149
aS'the Brazilian'
p1150
aS'the certificate'
p1151
aS'the Chinese person'
p1152
aS'the communal labour'
p1153
aS'the European'
p1154
aS'the Creole or black person'
p1155
aS'the fool'
p1156
aS'the foreman'
p1157
aS'the French person'
p1158
aS'the government document'
p1159
aS'the hermit'
p1160
aS'the hockey'
p1161
aS'the layman'
p1162
aS'the partner'
p1163
aS'the policeman'
p1164
aS'the power'
p1165
aS'the settlement'
p1166
aS'the small change'
p1167
aS'the socialism'
p1168
aS'the sport'
p1169
aS'the student'
p1170
aS'the vote or ballot or pole'
p1171
aS'mate'
p1172
asS'Warfare and hunting'
p1173
(lp1174
S'the war or battle'
p1175
aS'the peace'
p1176
aS'the army'
p1177
aS'the soldier'
p1178
aS'the weapons'
p1179
aS'the club'
p1180
aS'the battle-axe'
p1181
aS'the sling'
p1182
aS'the bow'
p1183
aS'the arrow'
p1184
aS'the spear'
p1185
aS'the sword'
p1186
aS'the gun'
p1187
aS'the armour'
p1188
aS'the helmet'
p1189
aS'the shield'
p1190
aS'the fortress'
p1191
aS'the tower'
p1192
aS'the victory'
p1193
aS'the defeat'
p1194
aS'the attack'
p1195
aS'the captive or prisoner'
p1196
aS'the guard'
p1197
aS'the booty'
p1198
aS'the ambush'
p1199
aS'the fisherman'
p1200
aS'the fishhook'
p1201
aS'the fishing line'
p1202
aS'the fishnet'
p1203
aS'the fish trap'
p1204
aS'the bait'
p1205
aS'the trap'
p1206
aS'the cutlass'
p1207
aS'the force'
p1208
aS'the game animal'
p1209
aS'the letterwood bow'
p1210
aS'the warship'
p1211
as.