(dp0
S'Agriculture and vegetation'
p1
(lp2
S'to cultivate'
p3
aS'to plough/plow'
p4
aS'to dig'
p5
aS'to sow'
p6
aS'to mow'
p7
aS'to thresh'
p8
aS'to plant'
p9
aS'to smoke'
p10
aS'to grow(2)'
p11
aS'to pick'
p12
aS'to raise'
p13
asS'The body'
p14
(lp15
S'to blink'
p16
aS'to breathe'
p17
aS'to yawn'
p18
aS'to hiccough'
p19
aS'to cough'
p20
aS'to sneeze'
p21
aS'to perspire'
p22
aS'to spit'
p23
aS'to vomit'
p24
aS'to bite'
p25
aS'to lick'
p26
aS'to dribble'
p27
aS'to sleep'
p28
aS'to snore'
p29
aS'to dream'
p30
aS'to wake up'
p31
aS'to fart'
p32
aS'to piss'
p33
aS'to shit'
p34
aS'to have sex'
p35
aS'to shiver'
p36
aS'to bathe'
p37
aS'to beget'
p38
aS'to be born'
p39
aS'to conceive'
p40
aS'to be alive'
p41
aS'to die'
p42
aS'to drown'
p43
aS'to kill'
p44
aS'to bury'
p45
aS'to cure'
p46
aS'to rest'
p47
aS'to scratch'
p48
aS'to itch'
p49
asS'The physical world'
p50
(lp51
S'to burn(1)'
p52
aS'to burn(2)'
p53
aS'to light'
p54
aS'to extinguish'
p55
aS'to freeze'
p56
aS'to blaze'
p57
aS'to melt'
p58
asS'Kinship'
p59
(lp60
S'to marry'
p61
asS'Possession'
p62
(lp63
S'to have'
p64
aS'to own'
p65
aS'to take'
p66
aS'to grasp'
p67
aS'to hold'
p68
aS'to get'
p69
aS'to keep'
p70
aS'to give'
p71
aS'to give back'
p72
aS'to preserve'
p73
aS'to rescue'
p74
aS'to destroy'
p75
aS'to injure'
p76
aS'to look for'
p77
aS'to find'
p78
aS'to lose'
p79
aS'to let go'
p80
aS'to lend'
p81
aS'to borrow'
p82
aS'to owe'
p83
aS'to pay'
p84
aS'to hire'
p85
aS'to earn'
p86
aS'to buy'
p87
aS'to sell'
p88
aS'to trade or barter'
p89
aS'to share'
p90
aS'to weigh'
p91
aS'to damage'
p92
aS'to be worth'
p93
asS'Basic actions and technology'
p94
(lp95
S'to do'
p96
aS'to bend'
p97
aS'to fold'
p98
aS'to tie'
p99
aS'to untie'
p100
aS'to strike or hit or beat'
p101
aS'to pound'
p102
aS'to cut'
p103
aS'to cut down'
p104
aS'to chop'
p105
aS'to stab'
p106
aS'to break'
p107
aS'to split'
p108
aS'to tear'
p109
aS'to skin'
p110
aS'to rub'
p111
aS'to stretch'
p112
aS'to pull'
p113
aS'to spread out'
p114
aS'to hang up'
p115
aS'to press'
p116
aS'to squeeze'
p117
aS'to pour'
p118
aS'to wash'
p119
aS'to sweep'
p120
aS'to build'
p121
aS'to bore'
p122
aS'to hollow out'
p123
aS'to forge'
p124
aS'to cast'
p125
aS'to mould/mold'
p126
aS'to weave or plait/braid'
p127
aS'to fan'
p128
aS'to carve'
p129
aS'to paint'
p130
aS'to draw water'
p131
aS'to make'
p132
aS'to wipe'
p133
aS'to close'
p134
aS'to draw'
p135
aS'to dwell'
p136
aS'to go away'
p137
aS'to muddle'
p138
aS'to prepare'
p139
aS'to smear'
p140
aS'to support'
p141
asS'Food and drink'
p142
(lp143
S'to eat'
p144
aS'to drink'
p145
aS'to be hungry'
p146
aS'to be thirsty'
p147
aS'to suck'
p148
aS'to chew'
p149
aS'to swallow'
p150
aS'to choke'
p151
aS'to cook'
p152
aS'to boil'
p153
aS'to roast or fry'
p154
aS'to bake'
p155
aS'to peel'
p156
aS'to sieve or to strain'
p157
aS'to scrape'
p158
aS'to stir or to mix'
p159
aS'to knead'
p160
aS'to crush or to grind'
p161
aS'to milk'
p162
asS'Speech and language'
p163
(lp164
S'to sing'
p165
aS'to shout'
p166
aS'to whisper'
p167
aS'to mumble'
p168
aS'to whistle'
p169
aS'to shriek'
p170
aS'to howl'
p171
aS'to speak or talk'
p172
aS'to stutter or stammer'
p173
aS'to say'
p174
aS'to tell'
p175
aS'to be silent'
p176
aS'to ask(1)'
p177
aS'to answer'
p178
aS'to admit'
p179
aS'to deny'
p180
aS'to ask(2)'
p181
aS'to promise'
p182
aS'to refuse'
p183
aS'to forbid'
p184
aS'to scold'
p185
aS'to call(1)'
p186
aS'to call(2)'
p187
aS'to announce'
p188
aS'to threaten'
p189
aS'to boast'
p190
aS'to write'
p191
aS'to read'
p192
aS'to chat'
p193
aS'to greet'
p194
aS'to spell'
p195
aS'to thank'
p196
asS'Miscellaneous function words'
p197
(lp198
S'to be'
p199
aS'to become'
p200
asS'Law'
p201
(lp202
S'to adjudicate'
p203
aS'to swear'
p204
aS'to accuse'
p205
aS'to condemn'
p206
aS'to convict'
p207
aS'to acquit'
p208
aS'to steal'
p209
asS'Animals'
p210
(lp211
sS'Sense perception'
p212
(lp213
S'to smell(1)'
p214
aS'to sniff'
p215
aS'to smell(2)'
p216
aS'to taste'
p217
aS'to hear'
p218
aS'to listen'
p219
aS'to see'
p220
aS'to look'
p221
aS'to show'
p222
aS'to shine'
p223
aS'to touch'
p224
aS'to pinch'
p225
aS'to feel'
p226
asS'Cognition'
p227
(lp228
S'to think(1)'
p229
aS'to think(2)'
p230
aS'to believe'
p231
aS'to understand'
p232
aS'to know'
p233
aS'to guess'
p234
aS'to imitate'
p235
aS'to seem'
p236
aS'to learn'
p237
aS'to study'
p238
aS'to teach'
p239
aS'to remember'
p240
aS'to forget'
p241
aS'to explain'
p242
aS'to suspect'
p243
aS'to betray'
p244
aS'to try'
p245
aS'to doubt'
p246
asS'Clothing and grooming'
p247
(lp248
S'to put on'
p249
aS'to spin'
p250
aS'to weave'
p251
aS'to sew'
p252
aS'to dye'
p253
aS'to wear'
p254
asS'Modern world'
p255
(lp256
S'to brake'
p257
asS'Motion'
p258
(lp259
S'to move'
p260
aS'to turn'
p261
aS'to turn around'
p262
aS'to wrap'
p263
aS'to roll'
p264
aS'to drop'
p265
aS'to twist'
p266
aS'to rise'
p267
aS'to raise or lift'
p268
aS'to fall'
p269
aS'to drip'
p270
aS'to throw'
p271
aS'to catch'
p272
aS'to shake'
p273
aS'to flow'
p274
aS'to sink'
p275
aS'to float'
p276
aS'to swim'
p277
aS'to dive'
p278
aS'to splash'
p279
aS'to sail'
p280
aS'to fly'
p281
aS'to blow'
p282
aS'to crawl'
p283
aS'to kneel'
p284
aS'to crouch'
p285
aS'to slide or slip'
p286
aS'to jump'
p287
aS'to kick'
p288
aS'to dance'
p289
aS'to walk'
p290
aS'to limp'
p291
aS'to run'
p292
aS'to go'
p293
aS'to go up'
p294
aS'to climb'
p295
aS'to go down'
p296
aS'to go out'
p297
aS'to come'
p298
aS'to come back'
p299
aS'to leave'
p300
aS'to disappear'
p301
aS'to flee'
p302
aS'to follow'
p303
aS'to pursue'
p304
aS'to arrive'
p305
aS'to approach'
p306
aS'to enter'
p307
aS'to carry'
p308
aS'to carry in hand'
p309
aS'to carry on shoulder'
p310
aS'to carry on head'
p311
aS'to carry under the arm'
p312
aS'to bring'
p313
aS'to send'
p314
aS'to lead'
p315
aS'to drive'
p316
aS'to ride'
p317
aS'to push'
p318
aS'to row'
p319
aS'to land'
p320
aS'to go or return home'
p321
aS'to accompany'
p322
aS'to carry on the back'
p323
aS'to dip'
p324
aS'to give a ride'
p325
aS'to step'
p326
aS'to wait'
p327
asS'The house'
p328
(lp329
S'to live'
p330
aS'to tan'
p331
asS'Time'
p332
(lp333
S'to hurry'
p334
aS'to be late'
p335
aS'to begin'
p336
aS'to last'
p337
aS'to finish'
p338
aS'to cease'
p339
asS'Religion and belief'
p340
(lp341
S'to worship'
p342
aS'to pray'
p343
aS'to preach'
p344
aS'to bless'
p345
aS'to curse'
p346
aS'to fast'
p347
asS'Quantity'
p348
(lp349
S'to count'
p350
aS'to fill'
p351
asS'Spatial relations'
p352
(lp353
S'to put'
p354
aS'to sit'
p355
aS'to lie down'
p356
aS'to stand'
p357
aS'to remain'
p358
aS'to gather'
p359
aS'to pick up'
p360
aS'to pile up'
p361
aS'to join'
p362
aS'to separate'
p363
aS'to divide'
p364
aS'to open'
p365
aS'to shut'
p366
aS'to cover'
p367
aS'to hide'
p368
aS'to grow'
p369
aS'to measure'
p370
aS'to change'
p371
asS'Emotions and values'
p372
(lp373
S'to laugh'
p374
aS'to smile'
p375
aS'to play'
p376
aS'to love'
p377
aS'to kiss'
p378
aS'to embrace'
p379
aS'to regret or be sorry'
p380
aS'to cry'
p381
aS'to groan'
p382
aS'to hate'
p383
aS'to dare'
p384
aS'to want'
p385
aS'to choose'
p386
aS'to hope'
p387
aS'to lie(2)'
p388
aS'to forgive'
p389
aS'to be ashamed'
p390
aS'to be glad'
p391
aS'to complain'
p392
aS'to enthuse'
p393
aS'to look forward'
p394
aS'to praise'
p395
asS'Social and political relations'
p396
(lp397
S'to rule or govern'
p398
aS'to command or order'
p399
aS'to obey'
p400
aS'to permit'
p401
aS'to help'
p402
aS'to prevent'
p403
aS'to meet'
p404
aS'to liberate'
p405
aS'to invite'
p406
aS'to commit a crime'
p407
aS'to quarrel'
p408
aS'to respect'
p409
aS'to retire'
p410
aS'to say goodbye'
p411
asS'Warfare and hunting'
p412
(lp413
S'to fight'
p414
aS'to defend'
p415
aS'to retreat'
p416
aS'to surrender'
p417
aS'to hunt'
p418
aS'to shoot'
p419
aS'to miss'
p420
aS'to trap'
p421
aS'to attack'
p422
aS'to fish'
p423
aS'to win'
p424
as.